; Function Attrs: nounwind uwtable
define ptr @l_Std_Range_forIn_x27_loop___at_Lean_Elab_Tactic_GuardMsgs_elabGuardMsgs___spec__34(ptr readnone captures(none) %0, ptr readnone captures(none) %1, ptr noundef %2, ptr noundef %3, ptr noundef %4, ptr noundef readonly captures(none) %5, ptr noundef %6, ptr noundef %7, ptr readnone captures(none) %8, ptr readnone captures(none) %9) local_unnamed_addr #0 {
  %11 = getelementptr inbounds nuw i8, ptr %5, i64 16
  %12 = getelementptr inbounds nuw i8, ptr %5, i64 24
  br label %lean_dec.exit26

lean_dec.exit26:                                  ; preds = %lean_dec.exit26.backedge, %10
  %.023 = phi ptr [ %7, %10 ], [ %.023.be, %lean_dec.exit26.backedge ]
  %.021 = phi ptr [ %6, %10 ], [ %.021.be, %lean_dec.exit26.backedge ]
  %13 = load ptr, ptr %11, align 8, !tbaa !4
  %14 = ptrtoint ptr %.023 to i64
  %15 = and i64 %14, 1
  %.not = icmp eq i64 %15, 0
  br i1 %.not, label %lean_nat_lt.exit.thread45, label %16, !prof !18

16:                                               ; preds = %lean_dec.exit26
  %17 = ptrtoint ptr %13 to i64
  %18 = and i64 %17, 1
  %.not48 = icmp eq i64 %18, 0
  br i1 %.not48, label %lean_nat_lt.exit, label %lean_nat_lt.exit.thread, !prof !18

lean_nat_lt.exit:                                 ; preds = %16
  %19 = tail call zeroext i1 @lean_nat_big_lt(ptr noundef %.023, ptr noundef %13) #7
  br i1 %19, label %.thread34, label %.thread

lean_nat_lt.exit.thread45:                        ; preds = %lean_dec.exit26
  %20 = tail call zeroext i1 @lean_nat_big_lt(ptr noundef %.023, ptr noundef %13) #7
  br i1 %20, label %28, label %21

lean_nat_lt.exit.thread:                          ; preds = %16
  %.not49 = icmp ult ptr %.023, %13
  br i1 %.not49, label %.thread34, label %.thread

21:                                               ; preds = %lean_nat_lt.exit.thread45
  %22 = load i32, ptr %.023, align 4, !tbaa !8
  %23 = icmp sgt i32 %22, 1
  br i1 %23, label %24, label %26, !prof !13

24:                                               ; preds = %21
  %25 = add nsw i32 %22, -1
  store i32 %25, ptr %.023, align 4, !tbaa !8
  br label %.thread

26:                                               ; preds = %21
  %.not.i = icmp eq i32 %22, 0
  br i1 %.not.i, label %.thread, label %27

27:                                               ; preds = %26
  tail call void @lean_dec_ref_cold(ptr noundef nonnull %.023) #7
  br label %.thread

28:                                               ; preds = %lean_nat_lt.exit.thread45
  %29 = tail call ptr @l_Subarray_get___rarg(ptr noundef %2, ptr noundef %.023) #7
  %.val.i = load i32, ptr %.023, align 4, !tbaa !8
  %30 = icmp sgt i32 %.val.i, 0
  br i1 %30, label %31, label %33, !prof !13

31:                                               ; preds = %28
  %32 = add nuw i32 %.val.i, 1
  store i32 %32, ptr %.023, align 4, !tbaa !8
  br label %52

33:                                               ; preds = %28
  %.not.i31 = icmp eq i32 %.val.i, 0
  br i1 %.not.i31, label %52, label %34

34:                                               ; preds = %33
  tail call void @lean_inc_ref_cold(ptr noundef nonnull %.023) #7
  br label %52

.thread34:                                        ; preds = %lean_nat_lt.exit, %lean_nat_lt.exit.thread
  %35 = tail call ptr @l_Subarray_get___rarg(ptr noundef %2, ptr noundef %.023) #7
  %36 = tail call ptr @l_Lean_Diff_Histogram_addRight___at_Lean_Elab_Tactic_GuardMsgs_elabGuardMsgs___spec__22(ptr noundef %3, ptr noundef %4, ptr noundef %.021, ptr noundef %.023, ptr noundef %35)
  %37 = load ptr, ptr %12, align 8, !tbaa !4
  %38 = ptrtoint ptr %37 to i64
  %39 = and i64 %38, 1
  %.not50 = icmp eq i64 %39, 0
  br i1 %.not50, label %lean_nat_add.exit.thread37, label %41, !prof !18

lean_nat_add.exit.thread37:                       ; preds = %.thread34
  %40 = tail call ptr @lean_nat_big_add(ptr noundef %.023, ptr noundef %37) #7
  br label %lean_dec.exit26.backedge

41:                                               ; preds = %.thread34
  %42 = lshr i64 %14, 1
  %43 = lshr i64 %38, 1
  %44 = add nuw i64 %43, %42
  %45 = icmp sgt i64 %44, -1
  br i1 %45, label %46, label %50, !prof !13

46:                                               ; preds = %41
  %47 = shl nuw i64 %44, 1
  %48 = or disjoint i64 %47, 1
  %49 = inttoptr i64 %48 to ptr
  br label %lean_dec.exit26.backedge

lean_dec.exit26.backedge:                         ; preds = %46, %50, %lean_nat_add.exit.thread37, %58, %60, %61
  %.023.be = phi ptr [ %40, %lean_nat_add.exit.thread37 ], [ %55, %58 ], [ %55, %60 ], [ %55, %61 ], [ %51, %50 ], [ %49, %46 ]
  %.021.be = phi ptr [ %36, %lean_nat_add.exit.thread37 ], [ %53, %58 ], [ %53, %60 ], [ %53, %61 ], [ %36, %50 ], [ %36, %46 ]
  br label %lean_dec.exit26

50:                                               ; preds = %41
  %51 = tail call ptr @lean_big_usize_to_nat(i64 noundef range(i64 0, -1) %44) #7
  br label %lean_dec.exit26.backedge

52:                                               ; preds = %31, %33, %34
  %53 = tail call ptr @l_Lean_Diff_Histogram_addRight___at_Lean_Elab_Tactic_GuardMsgs_elabGuardMsgs___spec__22(ptr noundef %3, ptr noundef %4, ptr noundef %.021, ptr noundef nonnull %.023, ptr noundef %29)
  %54 = load ptr, ptr %12, align 8, !tbaa !4
  %55 = tail call ptr @lean_nat_big_add(ptr noundef nonnull %.023, ptr noundef %54) #7
  %56 = load i32, ptr %.023, align 4, !tbaa !8
  %57 = icmp sgt i32 %56, 1
  br i1 %57, label %58, label %60, !prof !13

58:                                               ; preds = %52
  %59 = add nsw i32 %56, -1
  store i32 %59, ptr %.023, align 4, !tbaa !8
  br label %lean_dec.exit26.backedge

60:                                               ; preds = %52
  %.not.i27 = icmp eq i32 %56, 0
  br i1 %.not.i27, label %lean_dec.exit26.backedge, label %61

61:                                               ; preds = %60
  tail call void @lean_dec_ref_cold(ptr noundef nonnull %.023) #7
  br label %lean_dec.exit26.backedge

.thread:                                          ; preds = %lean_nat_lt.exit, %lean_nat_lt.exit.thread, %27, %26, %24
  ret ptr %.021
}